#include <math.h>
#include <stdio.h>
#include <stdlib.h>
#include <string.h>


int isPrime(int x)
{
	int i;
	for(i=2;i*i<=x;i++)
		if(x%i==0)
			return 0;

	return 1;
}

int main()
{
	int m,i;
	scanf("%d",&m);

	for(i=3;i<=m/2;i+=2)
	{
		if(isPrime(i)&&isPrime(m-i))
			printf("%d %d\n",i,m-i);
	}
	
	return 0;
}